; ---------------------------------------------------------------
; (c) 2022 by Jens Kallup - paule32
; all rights reserved.
; ---------------------------------------------------------------
LIBRARY "asmjit.dll"
EXPORTS
_ZN6asmjit8_abi_1_910CodeHolder10growBufferEPNS0_10CodeBufferEj@8
_ZN6asmjit8_abi_1_910CodeHolder10newSectionEPPNS0_7SectionEPKcjNS0_12SectionFlagsEji@24
_ZN6asmjit8_abi_1_910CodeHolder12newLabelLinkEPNS0_10LabelEntryEjjiRKNS0_12OffsetFormatE@20
_ZN6asmjit8_abi_1_910CodeHolder13labelIdByNameEPKcjj@12
_ZN6asmjit8_abi_1_910CodeHolder13newLabelEntryEPPNS0_10LabelEntryE@4
_ZN6asmjit8_abi_1_910CodeHolder13newRelocEntryEPPNS0_10RelocEntryENS0_9RelocTypeE@8
_ZN6asmjit8_abi_1_910CodeHolder13reserveBufferEPNS0_10CodeBufferEj@8
_ZN6asmjit8_abi_1_910CodeHolder14relocateToBaseEy@8
_ZN6asmjit8_abi_1_910CodeHolder15copySectionDataEPvjjNS0_16CopySectionFlagsE@16
_ZN6asmjit8_abi_1_910CodeHolder15setErrorHandlerEPNS0_12ErrorHandlerE@4
_ZN6asmjit8_abi_1_910CodeHolder17copyFlattenedDataEPvjNS0_16CopySectionFlagsE@12
_ZN6asmjit8_abi_1_910CodeHolder18newNamedLabelEntryEPPNS0_10LabelEntryEPKcjNS0_9LabelTypeEj@20
_ZN6asmjit8_abi_1_910CodeHolder22resolveUnresolvedLinksEv
_ZN6asmjit8_abi_1_910CodeHolder24addAddressToAddressTableEy@8
_ZN6asmjit8_abi_1_910CodeHolder25ensureAddressTableSectionEv
_ZN6asmjit8_abi_1_910CodeHolder4initERKNS0_11EnvironmentEy@12
_ZN6asmjit8_abi_1_910CodeHolder5resetENS0_11ResetPolicyE@4
_ZN6asmjit8_abi_1_910CodeHolder6attachEPNS0_11BaseEmitterE@4
_ZN6asmjit8_abi_1_910CodeHolder6detachEPNS0_11BaseEmitterE@4
_ZN6asmjit8_abi_1_910CodeHolder7flattenEv
_ZN6asmjit8_abi_1_910CodeHolder9bindLabelERKNS0_5LabelEjy@16
_ZN6asmjit8_abi_1_910CodeHolder9setLoggerEPNS0_6LoggerE@4
_ZN6asmjit8_abi_1_910CodeHolderC1EPKNS0_7Support9TemporaryE@4
_ZN6asmjit8_abi_1_910CodeHolderC2EPKNS0_7Support9TemporaryE@4
_ZN6asmjit8_abi_1_910CodeHolderD1Ev
_ZN6asmjit8_abi_1_910CodeHolderD2Ev
_ZN6asmjit8_abi_1_910DebugUtils11debugOutputEPKc
_ZN6asmjit8_abi_1_910DebugUtils13errorAsStringEj
_ZN6asmjit8_abi_1_910DebugUtils15assertionFailedEPKciS3_
_ZN6asmjit8_abi_1_910FileLogger4_logEPKcj@8
_ZN6asmjit8_abi_1_910FileLoggerC1EP6_iobuf@4
_ZN6asmjit8_abi_1_910FileLoggerC2EP6_iobuf@4
_ZN6asmjit8_abi_1_910FileLoggerD0Ev
_ZN6asmjit8_abi_1_910FileLoggerD1Ev
_ZN6asmjit8_abi_1_910FileLoggerD2Ev
_ZN6asmjit8_abi_1_910FuncDetail4initERKNS0_13FuncSignatureERKNS0_11EnvironmentE@8
_ZN6asmjit8_abi_1_910JitRuntime4_addEPPvPNS0_10CodeHolderE@8
_ZN6asmjit8_abi_1_910JitRuntime8_releaseEPv@4
_ZN6asmjit8_abi_1_910JitRuntimeC1EPKNS0_12JitAllocator12CreateParamsE@4
_ZN6asmjit8_abi_1_910JitRuntimeC2EPKNS0_12JitAllocator12CreateParamsE@4
_ZN6asmjit8_abi_1_910JitRuntimeD0Ev
_ZN6asmjit8_abi_1_910JitRuntimeD1Ev
_ZN6asmjit8_abi_1_910JitRuntimeD2Ev
_ZN6asmjit8_abi_1_911BaseBuilder10deletePassEPNS0_4PassE@4
_ZN6asmjit8_abi_1_911BaseBuilder10embedLabelERKNS0_5LabelEj@8
_ZN6asmjit8_abi_1_911BaseBuilder10removeNodeEPNS0_8BaseNodeE@4
_ZN6asmjit8_abi_1_911BaseBuilder11labelNodeOfEPPNS0_9LabelNodeEj@8
_ZN6asmjit8_abi_1_911BaseBuilder11newInstNodeEPPNS0_8InstNodeEjNS0_11InstOptionsEj@16
_ZN6asmjit8_abi_1_911BaseBuilder11removeNodesEPNS0_8BaseNodeES3_@8
_ZN6asmjit8_abi_1_911BaseBuilder11serializeToEPNS0_11BaseEmitterE@4
_ZN6asmjit8_abi_1_911BaseBuilder12newAlignNodeEPPNS0_9AlignNodeENS0_9AlignModeEj@12
_ZN6asmjit8_abi_1_911BaseBuilder12newLabelNodeEPPNS0_9LabelNodeE@4
_ZN6asmjit8_abi_1_911BaseBuilder13newNamedLabelEPKcjNS0_9LabelTypeEj@20
_ZN6asmjit8_abi_1_911BaseBuilder13sectionNodeOfEPPNS0_11SectionNodeEj@8
_ZN6asmjit8_abi_1_911BaseBuilder14embedConstPoolERKNS0_5LabelERKNS0_9ConstPoolE@8
_ZN6asmjit8_abi_1_911BaseBuilder14embedDataArrayENS0_6TypeIdEPKvjj@16
_ZN6asmjit8_abi_1_911BaseBuilder14newCommentNodeEPPNS0_11CommentNodeEPKcj@12
_ZN6asmjit8_abi_1_911BaseBuilder15embedLabelDeltaERKNS0_5LabelES4_j@12
_ZN6asmjit8_abi_1_911BaseBuilder16newConstPoolNodeEPPNS0_13ConstPoolNodeE@4
_ZN6asmjit8_abi_1_911BaseBuilder16newEmbedDataNodeEPPNS0_13EmbedDataNodeENS0_6TypeIdEPKvjj@20
_ZN6asmjit8_abi_1_911BaseBuilder17registerLabelNodeEPNS0_9LabelNodeE@4
_ZN6asmjit8_abi_1_911BaseBuilder18updateSectionLinksEv
_ZN6asmjit8_abi_1_911BaseBuilder4bindERKNS0_5LabelE@4
_ZN6asmjit8_abi_1_911BaseBuilder5_emitEjRKNS0_8Operand_ES4_S4_PS3_@20
_ZN6asmjit8_abi_1_911BaseBuilder5alignENS0_9AlignModeEj@8
_ZN6asmjit8_abi_1_911BaseBuilder5embedEPKvj@8
_ZN6asmjit8_abi_1_911BaseBuilder7addNodeEPNS0_8BaseNodeE@4
_ZN6asmjit8_abi_1_911BaseBuilder7addPassEPNS0_4PassE@4
_ZN6asmjit8_abi_1_911BaseBuilder7commentEPKcj@8
_ZN6asmjit8_abi_1_911BaseBuilder7sectionEPNS0_7SectionE@4
_ZN6asmjit8_abi_1_911BaseBuilder8addAfterEPNS0_8BaseNodeES3_@8
_ZN6asmjit8_abi_1_911BaseBuilder8newLabelEv@4
_ZN6asmjit8_abi_1_911BaseBuilder8onAttachEPNS0_10CodeHolderE@4
_ZN6asmjit8_abi_1_911BaseBuilder8onDetachEPNS0_10CodeHolderE@4
_ZN6asmjit8_abi_1_911BaseBuilder9addBeforeEPNS0_8BaseNodeES3_@8
_ZN6asmjit8_abi_1_911BaseBuilder9runPassesEv
_ZN6asmjit8_abi_1_911BaseBuilder9setCursorEPNS0_8BaseNodeE@4
_ZN6asmjit8_abi_1_911BaseBuilderC1Ev
_ZN6asmjit8_abi_1_911BaseBuilderC2Ev
_ZN6asmjit8_abi_1_911BaseBuilderD0Ev
_ZN6asmjit8_abi_1_911BaseBuilderD1Ev
_ZN6asmjit8_abi_1_911BaseBuilderD2Ev
_ZN6asmjit8_abi_1_911BaseEmitter10emitEpilogERKNS0_9FuncFrameE@4
_ZN6asmjit8_abi_1_911BaseEmitter10emitPrologERKNS0_9FuncFrameE@4
_ZN6asmjit8_abi_1_911BaseEmitter11labelByNameEPKcjj@16
_ZN6asmjit8_abi_1_911BaseEmitter11reportErrorEjPKc@8
_ZN6asmjit8_abi_1_911BaseEmitter12_emitOpArrayEjPKNS0_8Operand_Ej@12
_ZN6asmjit8_abi_1_911BaseEmitter15setErrorHandlerEPNS0_12ErrorHandlerE@4
_ZN6asmjit8_abi_1_911BaseEmitter17onSettingsUpdatedEv
_ZN6asmjit8_abi_1_911BaseEmitter18emitArgsAssignmentERKNS0_9FuncFrameERKNS0_18FuncArgsAssignmentE@8
_ZN6asmjit8_abi_1_911BaseEmitter20addDiagnosticOptionsENS0_17DiagnosticOptionsE@4
_ZN6asmjit8_abi_1_911BaseEmitter22clearDiagnosticOptionsENS0_17DiagnosticOptionsE@4
_ZN6asmjit8_abi_1_911BaseEmitter6_emitIEj@4
_ZN6asmjit8_abi_1_911BaseEmitter6_emitIEjRKNS0_8Operand_E@8
_ZN6asmjit8_abi_1_911BaseEmitter6_emitIEjRKNS0_8Operand_ES4_@12
_ZN6asmjit8_abi_1_911BaseEmitter6_emitIEjRKNS0_8Operand_ES4_S4_@16
_ZN6asmjit8_abi_1_911BaseEmitter6_emitIEjRKNS0_8Operand_ES4_S4_S4_@20
_ZN6asmjit8_abi_1_911BaseEmitter6_emitIEjRKNS0_8Operand_ES4_S4_S4_S4_@24
_ZN6asmjit8_abi_1_911BaseEmitter6_emitIEjRKNS0_8Operand_ES4_S4_S4_S4_S4_@28
_ZN6asmjit8_abi_1_911BaseEmitter8commentfEPKcz
_ZN6asmjit8_abi_1_911BaseEmitter8commentvEPKcPc@8
_ZN6asmjit8_abi_1_911BaseEmitter8finalizeEv
_ZN6asmjit8_abi_1_911BaseEmitter9setLoggerEPNS0_6LoggerE@4
_ZN6asmjit8_abi_1_911BaseEmitterC1ENS0_11EmitterTypeE@4
_ZN6asmjit8_abi_1_911BaseEmitterC2ENS0_11EmitterTypeE@4
_ZN6asmjit8_abi_1_911BaseEmitterD0Ev
_ZN6asmjit8_abi_1_911BaseEmitterD1Ev
_ZN6asmjit8_abi_1_911BaseEmitterD2Ev
_ZN6asmjit8_abi_1_911_archTraitsE DATA
_ZN6asmjit8_abi_1_912BaseCompiler10_newRegFmtEPNS0_7BaseRegENS0_6TypeIdEPKcz
_ZN6asmjit8_abi_1_912BaseCompiler10_newRegFmtEPNS0_7BaseRegERKS2_PKcz
_ZN6asmjit8_abi_1_912BaseCompiler10newVirtRegEPPNS0_7VirtRegENS0_6TypeIdENS0_16OperandSignatureEPKc@16
_ZN6asmjit8_abi_1_912BaseCompiler11addFuncNodeEPPNS0_8FuncNodeERKNS0_13FuncSignatureE@8
_ZN6asmjit8_abi_1_912BaseCompiler11newFuncNodeEPPNS0_8FuncNodeERKNS0_13FuncSignatureE@8
_ZN6asmjit8_abi_1_912BaseCompiler11newJumpNodeEPPNS0_8JumpNodeEjNS0_11InstOptionsERKNS0_8Operand_EPNS0_14JumpAnnotationE@20
_ZN6asmjit8_abi_1_912BaseCompiler12setStackSizeEjjj@12
_ZN6asmjit8_abi_1_912BaseCompiler13addInvokeNodeEPPNS0_10InvokeNodeEjRKNS0_8Operand_ERKNS0_13FuncSignatureE@16
_ZN6asmjit8_abi_1_912BaseCompiler13newInvokeNodeEPPNS0_10InvokeNodeEjRKNS0_8Operand_ERKNS0_13FuncSignatureE@16
_ZN6asmjit8_abi_1_912BaseCompiler14addFuncRetNodeEPPNS0_11FuncRetNodeERKNS0_8Operand_ES7_@12
_ZN6asmjit8_abi_1_912BaseCompiler14newFuncRetNodeEPPNS0_11FuncRetNodeERKNS0_8Operand_ES7_@12
_ZN6asmjit8_abi_1_912BaseCompiler17emitAnnotatedJumpEjRKNS0_8Operand_EPNS0_14JumpAnnotationE@12
_ZN6asmjit8_abi_1_912BaseCompiler17newJumpAnnotationEv
_ZN6asmjit8_abi_1_912BaseCompiler6renameERKNS0_7BaseRegEPKcz
_ZN6asmjit8_abi_1_912BaseCompiler7_newRegEPNS0_7BaseRegENS0_6TypeIdEPKc@12
_ZN6asmjit8_abi_1_912BaseCompiler7_newRegEPNS0_7BaseRegERKS2_PKc@12
_ZN6asmjit8_abi_1_912BaseCompiler7addFuncEPNS0_8FuncNodeE@4
_ZN6asmjit8_abi_1_912BaseCompiler7endFuncEv
_ZN6asmjit8_abi_1_912BaseCompiler8onAttachEPNS0_10CodeHolderE@4
_ZN6asmjit8_abi_1_912BaseCompiler8onDetachEPNS0_10CodeHolderE@4
_ZN6asmjit8_abi_1_912BaseCompiler9_newConstEPNS0_7BaseMemENS0_14ConstPoolScopeEPKvj@16
_ZN6asmjit8_abi_1_912BaseCompiler9_newStackEPNS0_7BaseMemEjjPKc@16
_ZN6asmjit8_abi_1_912BaseCompilerC1Ev
_ZN6asmjit8_abi_1_912BaseCompilerC2Ev
_ZN6asmjit8_abi_1_912BaseCompilerD0Ev
_ZN6asmjit8_abi_1_912BaseCompilerD1Ev
_ZN6asmjit8_abi_1_912BaseCompilerD2Ev
_ZN6asmjit8_abi_1_912ErrorHandlerC1Ev
_ZN6asmjit8_abi_1_912ErrorHandlerC2Ev
_ZN6asmjit8_abi_1_912ErrorHandlerD0Ev
_ZN6asmjit8_abi_1_912ErrorHandlerD1Ev
_ZN6asmjit8_abi_1_912ErrorHandlerD2Ev
_ZN6asmjit8_abi_1_912JitAllocator5allocEPPvS3_j@12
_ZN6asmjit8_abi_1_912JitAllocator5resetENS0_11ResetPolicyE@4
_ZN6asmjit8_abi_1_912JitAllocator6shrinkEPvj@8
_ZN6asmjit8_abi_1_912JitAllocator7releaseEPv@4
_ZN6asmjit8_abi_1_912JitAllocatorC1EPKNS1_12CreateParamsE@4
_ZN6asmjit8_abi_1_912JitAllocatorC2EPKNS1_12CreateParamsE@4
_ZN6asmjit8_abi_1_912JitAllocatorD1Ev
_ZN6asmjit8_abi_1_912JitAllocatorD2Ev
_ZN6asmjit8_abi_1_912StringLogger4_logEPKcj@8
_ZN6asmjit8_abi_1_912StringLoggerC1Ev
_ZN6asmjit8_abi_1_912StringLoggerC2Ev
_ZN6asmjit8_abi_1_912StringLoggerD0Ev
_ZN6asmjit8_abi_1_912StringLoggerD1Ev
_ZN6asmjit8_abi_1_912StringLoggerD2Ev
_ZN6asmjit8_abi_1_912ZoneHashBase7_insertEPNS0_13ZoneAllocatorEPNS0_12ZoneHashNodeE@8
_ZN6asmjit8_abi_1_912ZoneHashBase7_rehashEPNS0_13ZoneAllocatorEj@8
_ZN6asmjit8_abi_1_912ZoneHashBase7_removeEPNS0_13ZoneAllocatorEPNS0_12ZoneHashNodeE@8
_ZN6asmjit8_abi_1_913BaseAssembler10embedLabelERKNS0_5LabelEj@8
_ZN6asmjit8_abi_1_913BaseAssembler13newNamedLabelEPKcjNS0_9LabelTypeEj@20
_ZN6asmjit8_abi_1_913BaseAssembler14embedConstPoolERKNS0_5LabelERKNS0_9ConstPoolE@8
_ZN6asmjit8_abi_1_913BaseAssembler14embedDataArrayENS0_6TypeIdEPKvjj@16
_ZN6asmjit8_abi_1_913BaseAssembler15embedLabelDeltaERKNS0_5LabelES4_j@12
_ZN6asmjit8_abi_1_913BaseAssembler4bindERKNS0_5LabelE@4
_ZN6asmjit8_abi_1_913BaseAssembler5embedEPKvj@8
_ZN6asmjit8_abi_1_913BaseAssembler7commentEPKcj@8
_ZN6asmjit8_abi_1_913BaseAssembler7sectionEPNS0_7SectionE@4
_ZN6asmjit8_abi_1_913BaseAssembler8newLabelEv@4
_ZN6asmjit8_abi_1_913BaseAssembler8onAttachEPNS0_10CodeHolderE@4
_ZN6asmjit8_abi_1_913BaseAssembler8onDetachEPNS0_10CodeHolderE@4
_ZN6asmjit8_abi_1_913BaseAssembler9setOffsetEj@4
_ZN6asmjit8_abi_1_913BaseAssemblerC1Ev
_ZN6asmjit8_abi_1_913BaseAssemblerC2Ev
_ZN6asmjit8_abi_1_913BaseAssemblerD0Ev
_ZN6asmjit8_abi_1_913BaseAssemblerD1Ev
_ZN6asmjit8_abi_1_913BaseAssemblerD2Ev
_ZN6asmjit8_abi_1_913ZoneAllocator12_allocZeroedEjRj@8
_ZN6asmjit8_abi_1_913ZoneAllocator15_releaseDynamicEPvj@8
_ZN6asmjit8_abi_1_913ZoneAllocator5resetEPNS0_4ZoneE@4
_ZN6asmjit8_abi_1_913ZoneAllocator6_allocEjRj@8
_ZN6asmjit8_abi_1_913ZoneBitVector7_appendEPNS0_13ZoneAllocatorEb@8
_ZN6asmjit8_abi_1_913ZoneBitVector7_resizeEPNS0_13ZoneAllocatorEjjb@16
_ZN6asmjit8_abi_1_913ZoneBitVector8copyFromEPNS0_13ZoneAllocatorERKS1_@8
_ZN6asmjit8_abi_1_913ZoneStackBase13_cleanupBlockEjj@8
_ZN6asmjit8_abi_1_913ZoneStackBase13_prepareBlockEjj@8
_ZN6asmjit8_abi_1_913ZoneStackBase5_initEPNS0_13ZoneAllocatorEj@8
_ZN6asmjit8_abi_1_914ZoneVectorBase5_growEPNS0_13ZoneAllocatorEjj@12
_ZN6asmjit8_abi_1_914ZoneVectorBase7_resizeEPNS0_13ZoneAllocatorEjj@12
_ZN6asmjit8_abi_1_914ZoneVectorBase8_reserveEPNS0_13ZoneAllocatorEjj@12
_ZN6asmjit8_abi_1_93x866InstDB14_instInfoTableE DATA
_ZN6asmjit8_abi_1_93x866InstDB16_commonInfoTableE DATA
_ZN6asmjit8_abi_1_93x866InstDB17_opSignatureTableE DATA
_ZN6asmjit8_abi_1_93x866InstDB19_instSignatureTableE DATA
_ZN6asmjit8_abi_1_93x867Builder8finalizeEv
_ZN6asmjit8_abi_1_93x867Builder8onAttachEPNS0_10CodeHolderE@4
_ZN6asmjit8_abi_1_93x867Builder8onDetachEPNS0_10CodeHolderE@4
_ZN6asmjit8_abi_1_93x867BuilderC1EPNS0_10CodeHolderE@4
_ZN6asmjit8_abi_1_93x867BuilderC2EPNS0_10CodeHolderE@4
_ZN6asmjit8_abi_1_93x867BuilderD0Ev
_ZN6asmjit8_abi_1_93x867BuilderD1Ev
_ZN6asmjit8_abi_1_93x867BuilderD2Ev
_ZN6asmjit8_abi_1_93x868Compiler8finalizeEv
_ZN6asmjit8_abi_1_93x868Compiler8onAttachEPNS0_10CodeHolderE@4
_ZN6asmjit8_abi_1_93x868Compiler8onDetachEPNS0_10CodeHolderE@4
_ZN6asmjit8_abi_1_93x868CompilerC1EPNS0_10CodeHolderE@4
_ZN6asmjit8_abi_1_93x868CompilerC2EPNS0_10CodeHolderE@4
_ZN6asmjit8_abi_1_93x868CompilerD0Ev
_ZN6asmjit8_abi_1_93x868CompilerD1Ev
_ZN6asmjit8_abi_1_93x868CompilerD2Ev
_ZN6asmjit8_abi_1_93x869Assembler5_emitEjRKNS0_8Operand_ES5_S5_PS4_@20
_ZN6asmjit8_abi_1_93x869Assembler5alignENS0_9AlignModeEj@8
_ZN6asmjit8_abi_1_93x869Assembler8onAttachEPNS0_10CodeHolderE@4
_ZN6asmjit8_abi_1_93x869Assembler8onDetachEPNS0_10CodeHolderE@4
_ZN6asmjit8_abi_1_93x869AssemblerC1EPNS0_10CodeHolderE@4
_ZN6asmjit8_abi_1_93x869AssemblerC2EPNS0_10CodeHolderE@4
_ZN6asmjit8_abi_1_93x869AssemblerD0Ev
_ZN6asmjit8_abi_1_93x869AssemblerD1Ev
_ZN6asmjit8_abi_1_93x869AssemblerD2Ev
_ZN6asmjit8_abi_1_94PassC1EPKc@4
_ZN6asmjit8_abi_1_94PassC2EPKc@4
_ZN6asmjit8_abi_1_94PassD0Ev
_ZN6asmjit8_abi_1_94PassD1Ev
_ZN6asmjit8_abi_1_94PassD2Ev
_ZN6asmjit8_abi_1_94Zone10_zeroBlockE DATA
_ZN6asmjit8_abi_1_94Zone11allocZeroedEjj@8
_ZN6asmjit8_abi_1_94Zone3dupEPKvjb@12
_ZN6asmjit8_abi_1_94Zone5_initEjjPKNS0_7Support9TemporaryE@12
_ZN6asmjit8_abi_1_94Zone5resetENS0_11ResetPolicyE@4
_ZN6asmjit8_abi_1_94Zone6_allocEjj@8
_ZN6asmjit8_abi_1_94Zone7sformatEPKcz
_ZN6asmjit8_abi_1_96Logger4logfEPKcz
_ZN6asmjit8_abi_1_96Logger4logvEPKcPc@8
_ZN6asmjit8_abi_1_96LoggerC1Ev
_ZN6asmjit8_abi_1_96LoggerC2Ev
_ZN6asmjit8_abi_1_96LoggerD0Ev
_ZN6asmjit8_abi_1_96LoggerD1Ev
_ZN6asmjit8_abi_1_96LoggerD2Ev
_ZN6asmjit8_abi_1_96String10_opVFormatENS1_8ModifyOpEPKcPc@12
_ZN6asmjit8_abi_1_96String5clearEv
_ZN6asmjit8_abi_1_96String5resetEv
_ZN6asmjit8_abi_1_96String6_opHexENS1_8ModifyOpEPKvjc@16
_ZN6asmjit8_abi_1_96String6assignEPKcj@8
_ZN6asmjit8_abi_1_96String6padEndEjc@8
_ZN6asmjit8_abi_1_96String7_opCharENS1_8ModifyOpEc@8
_ZN6asmjit8_abi_1_96String7prepareENS1_8ModifyOpEj@8
_ZN6asmjit8_abi_1_96String8_opCharsENS1_8ModifyOpEcj@12
_ZN6asmjit8_abi_1_96String8truncateEj@4
_ZN6asmjit8_abi_1_96String9_opFormatENS1_8ModifyOpEPKcz
_ZN6asmjit8_abi_1_96String9_opNumberENS1_8ModifyOpEyjjNS0_17StringFormatFlagsE@24
_ZN6asmjit8_abi_1_96String9_opStringENS1_8ModifyOpEPKcj@12
_ZN6asmjit8_abi_1_96TargetC1Ev
_ZN6asmjit8_abi_1_96TargetC2Ev
_ZN6asmjit8_abi_1_96TargetD0Ev
_ZN6asmjit8_abi_1_96TargetD1Ev
_ZN6asmjit8_abi_1_96TargetD2Ev
_ZN6asmjit8_abi_1_97CpuInfo4hostEv
_ZN6asmjit8_abi_1_97InstAPI11queryRWInfoENS0_4ArchERKNS0_8BaseInstEPKNS0_8Operand_EjPNS0_10InstRWInfoE
_ZN6asmjit8_abi_1_97InstAPI13queryFeaturesENS0_4ArchERKNS0_8BaseInstEPKNS0_8Operand_EjPNS0_11CpuFeaturesE
_ZN6asmjit8_abi_1_97InstAPI14instIdToStringENS0_4ArchEjRNS0_6StringE
_ZN6asmjit8_abi_1_97InstAPI14stringToInstIdENS0_4ArchEPKcj
_ZN6asmjit8_abi_1_97InstAPI8validateENS0_4ArchERKNS0_8BaseInstEPKNS0_8Operand_EjNS0_15ValidationFlagsE
_ZN6asmjit8_abi_1_97OSUtils12getTickCountEv
_ZN6asmjit8_abi_1_97VirtMem16allocDualMappingEPNS1_11DualMappingEjNS1_11MemoryFlagsE
_ZN6asmjit8_abi_1_97VirtMem16protectJitMemoryENS1_16ProtectJitAccessE
_ZN6asmjit8_abi_1_97VirtMem18releaseDualMappingEPNS1_11DualMappingEj
_ZN6asmjit8_abi_1_97VirtMem19hardenedRuntimeInfoEv
_ZN6asmjit8_abi_1_97VirtMem21flushInstructionCacheEPvj
_ZN6asmjit8_abi_1_97VirtMem4infoEv
_ZN6asmjit8_abi_1_97VirtMem5allocEPPvjNS1_11MemoryFlagsE
_ZN6asmjit8_abi_1_97VirtMem7protectEPvjNS1_11MemoryFlagsE
_ZN6asmjit8_abi_1_97VirtMem7releaseEPvj
_ZN6asmjit8_abi_1_98CallConv4initENS0_10CallConvIdERKNS0_11EnvironmentE@8
_ZN6asmjit8_abi_1_98FuncPass3runEPNS0_4ZoneEPNS0_6LoggerE@8
_ZN6asmjit8_abi_1_98FuncPassC1EPKc@4
_ZN6asmjit8_abi_1_98FuncPassC2EPKc@4
_ZN6asmjit8_abi_1_99ArchUtils20typeIdToRegSignatureENS0_4ArchENS0_6TypeIdEPS3_PNS0_16OperandSignatureE
_ZN6asmjit8_abi_1_99ConstPool3addEPKvjRj@12
_ZN6asmjit8_abi_1_99ConstPool5resetEPNS0_4ZoneE@4
_ZN6asmjit8_abi_1_99ConstPoolC1EPNS0_4ZoneE@4
_ZN6asmjit8_abi_1_99ConstPoolC2EPNS0_4ZoneE@4
_ZN6asmjit8_abi_1_99ConstPoolD1Ev
_ZN6asmjit8_abi_1_99ConstPoolD2Ev
_ZN6asmjit8_abi_1_99Formatter10formatDataERNS0_6StringENS0_11FormatFlagsENS0_4ArchENS0_6TypeIdEPKvjj
_ZN6asmjit8_abi_1_99Formatter10formatNodeERNS0_6StringERKNS0_13FormatOptionsEPKNS0_11BaseBuilderEPKNS0_8BaseNodeE
_ZN6asmjit8_abi_1_99Formatter11formatLabelERNS0_6StringENS0_11FormatFlagsEPKNS0_11BaseEmitterEj
_ZN6asmjit8_abi_1_99Formatter12formatTypeIdERNS0_6StringENS0_6TypeIdE
_ZN6asmjit8_abi_1_99Formatter13formatFeatureERNS0_6StringENS0_4ArchEj
_ZN6asmjit8_abi_1_99Formatter13formatOperandERNS0_6StringENS0_11FormatFlagsEPKNS0_11BaseEmitterENS0_4ArchERKNS0_8Operand_E
_ZN6asmjit8_abi_1_99Formatter14formatDataTypeERNS0_6StringENS0_11FormatFlagsENS0_4ArchENS0_6TypeIdE
_ZN6asmjit8_abi_1_99Formatter14formatNodeListERNS0_6StringERKNS0_13FormatOptionsEPKNS0_11BaseBuilderE
_ZN6asmjit8_abi_1_99Formatter14formatNodeListERNS0_6StringERKNS0_13FormatOptionsEPKNS0_11BaseBuilderEPKNS0_8BaseNodeESC_
_ZN6asmjit8_abi_1_99Formatter14formatRegisterERNS0_6StringENS0_11FormatFlagsEPKNS0_11BaseEmitterENS0_4ArchENS0_7RegTypeEj
_ZN6asmjit8_abi_1_99Formatter17formatInstructionERNS0_6StringENS0_11FormatFlagsEPKNS0_11BaseEmitterENS0_4ArchERKNS0_8BaseInstEPKNS0_8Operand_Ej
_ZN6asmjit8_abi_1_99FuncFrame4initERKNS0_10FuncDetailE@4
_ZN6asmjit8_abi_1_99FuncFrame8finalizeEv
_ZN6asmjit8_abi_1_99TypeUtils9_typeDataE DATA
_ZNK6asmjit8_abi_1_910CodeHolder13sectionByNameEPKcj@8
_ZNK6asmjit8_abi_1_910CodeHolder8codeSizeEv
_ZNK6asmjit8_abi_1_911BaseBuilder10passByNameEPKc@4
_ZNK6asmjit8_abi_1_911BaseEmitter12isLabelValidEj@4
_ZNK6asmjit8_abi_1_911Environment14stackAlignmentEv
_ZNK6asmjit8_abi_1_912JitAllocator10statisticsEv@4
_ZNK6asmjit8_abi_1_912JitAllocator5queryEPvPS2_S3_Pj@16
_ZNK6asmjit8_abi_1_918FuncArgsAssignment15updateFuncFrameERNS0_9FuncFrameE@4
_ZNK6asmjit8_abi_1_96String2eqEPKcj@8
_ZNK6asmjit8_abi_1_99ConstPool4fillEPv@4
